; Function Attrs: mustprogress nounwind uwtable
define dso_local { <2 x float>, <2 x float> } @_ZNK4pbrt20UniformInfiniteLight3PhiENS_18SampledWavelengthsE(ptr noundef nonnull readonly align 8 captures(none) dereferenceable(180) %0, ptr noundef readonly byval(%"class.pbrt::SampledWavelengths") align 8 captures(none) %1) local_unnamed_addr #11 align 2 {
  %3 = alloca %"class.pbrt::SampledSpectrum", align 8
  %4 = alloca %"class.pbrt::SampledSpectrum", align 8
  %5 = getelementptr inbounds nuw i8, ptr %0, i64 176
  %6 = load float, ptr %5, align 8, !tbaa !466
  %7 = fmul float %6, %6
  %8 = getelementptr inbounds nuw i8, ptr %0, i64 160
  %9 = load float, ptr %8, align 8, !tbaa !465
  %10 = getelementptr inbounds nuw i8, ptr %0, i64 152
  %11 = load ptr, ptr %10, align 8, !tbaa !463
  call void @llvm.lifetime.start.p0(i64 16, ptr nonnull %4)
  call void @llvm.memset.p0.i64(ptr noundef nonnull align 8 dereferenceable(16) %4, i8 0, i64 16, i1 false), !tbaa !77
  %12 = getelementptr inbounds nuw i8, ptr %11, i64 32
  %13 = load i64, ptr %12, align 8
  %14 = getelementptr inbounds nuw i8, ptr %11, i64 16
  %15 = load ptr, ptr %14, align 8
  br label %16

16:                                               ; preds = %29, %2
  %indvars.iv.i = phi i64 [ 0, %2 ], [ %indvars.iv.next.i, %29 ]
  %17 = getelementptr inbounds nuw [4 x float], ptr %1, i64 0, i64 %indvars.iv.i
  %18 = load float, ptr %17, align 4, !tbaa !77
  %19 = tail call noundef i64 @lroundf(float noundef %18) #38, !tbaa !86
  %20 = load i32, ptr %11, align 8, !tbaa !72
  %21 = trunc i64 %19 to i32
  %22 = sub i32 %21, %20
  %23 = icmp slt i32 %22, 0
  br i1 %23, label %29, label %24

24:                                               ; preds = %16
  %25 = zext nneg i32 %22 to i64
  %.not.i = icmp ugt i64 %13, %25
  br i1 %.not.i, label %26, label %29

26:                                               ; preds = %24
  %27 = getelementptr inbounds nuw float, ptr %15, i64 %25
  %28 = load float, ptr %27, align 4, !tbaa !77
  br label %29

29:                                               ; preds = %26, %24, %16
  %.sink.i = phi float [ %28, %26 ], [ 0.000000e+00, %24 ], [ 0.000000e+00, %16 ]
  %30 = getelementptr inbounds nuw [4 x float], ptr %4, i64 0, i64 %indvars.iv.i
  store float %.sink.i, ptr %30, align 4, !tbaa !77
  %indvars.iv.next.i = add nuw nsw i64 %indvars.iv.i, 1
  %exitcond.not.i = icmp eq i64 %indvars.iv.next.i, 4
  br i1 %exitcond.not.i, label %_ZNK4pbrt22DenselySampledSpectrum6SampleERKNS_18SampledWavelengthsE.exit, label %16, !llvm.loop !111

_ZNK4pbrt22DenselySampledSpectrum6SampleERKNS_18SampledWavelengthsE.exit: ; preds = %29
  %31 = fmul float %7, 0x4043BD3CE0000000
  %32 = fmul float %9, %31
  %.fca.0.load.i = load <2 x float>, ptr %4, align 8
  %.fca.1.gep.i = getelementptr inbounds nuw i8, ptr %4, i64 8
  %.fca.1.load.i = load <2 x float>, ptr %.fca.1.gep.i, align 8
  call void @llvm.lifetime.end.p0(i64 16, ptr nonnull %4)
  call void @llvm.lifetime.start.p0(i64 16, ptr nonnull %3)
  store <2 x float> %.fca.0.load.i, ptr %3, align 8
  %.sroa.4.0..sroa_idx = getelementptr inbounds nuw i8, ptr %3, i64 8
  store <2 x float> %.fca.1.load.i, ptr %.sroa.4.0..sroa_idx, align 8, !tbaa !16
  br label %33

33:                                               ; preds = %33, %_ZNK4pbrt22DenselySampledSpectrum6SampleERKNS_18SampledWavelengthsE.exit
  %indvars.iv.i.i = phi i64 [ 0, %_ZNK4pbrt22DenselySampledSpectrum6SampleERKNS_18SampledWavelengthsE.exit ], [ %indvars.iv.next.i.i, %33 ]
  %34 = getelementptr inbounds nuw [4 x float], ptr %3, i64 0, i64 %indvars.iv.i.i
  %35 = load float, ptr %34, align 4, !tbaa !77
  %36 = fmul float %32, %35
  store float %36, ptr %34, align 4, !tbaa !77
  %indvars.iv.next.i.i = add nuw nsw i64 %indvars.iv.i.i, 1
  %exitcond.not.i.i = icmp eq i64 %indvars.iv.next.i.i, 4
  br i1 %exitcond.not.i.i, label %_ZN4pbrtmlEfRKNS_15SampledSpectrumE.exit, label %33, !llvm.loop !112

_ZN4pbrtmlEfRKNS_15SampledSpectrumE.exit:         ; preds = %33
  %.fca.0.load.i.i = load <2 x float>, ptr %3, align 8
  %.fca.0.insert.i.i = insertvalue { <2 x float>, <2 x float> } poison, <2 x float> %.fca.0.load.i.i, 0
  %.fca.1.load.i.i = load <2 x float>, ptr %.sroa.4.0..sroa_idx, align 8
  %.fca.1.insert.i.i = insertvalue { <2 x float>, <2 x float> } %.fca.0.insert.i.i, <2 x float> %.fca.1.load.i.i, 1
  call void @llvm.lifetime.end.p0(i64 16, ptr nonnull %3)
  ret { <2 x float>, <2 x float> } %.fca.1.insert.i.i
}